target datalayout = "e-m:e-p270:32:32-p271:32:32-p272:64:64-i64:64-i128:128-f80:128-n8:16:32:64-S128"
target triple = "x86_64-pc-linux-gnu"

%struct.OnigEncodingTypeST = type { ptr, ptr, i32, i32, ptr, ptr, ptr, ptr, ptr, ptr, ptr, ptr, ptr, ptr, ptr, ptr, ptr, i32, i32 }

; Function Attrs: nounwind sspstrong uwtable
define internal i32 @is_mbc_newline_ex(ptr noundef %0, ptr noundef %1, ptr noundef %2, ptr noundef %3, i32 noundef %4, i32 noundef %5) #0 {
  %7 = alloca i32, align 4
  %8 = alloca ptr, align 8
  %9 = alloca ptr, align 8
  %10 = alloca ptr, align 8
  %11 = alloca ptr, align 8
  %12 = alloca i32, align 4
  %13 = alloca i32, align 4
  %14 = alloca ptr, align 8
  %15 = alloca i32, align 4
  %16 = alloca ptr, align 8
  store ptr %0, ptr %8, align 8, !tbaa !54
  store ptr %1, ptr %9, align 8, !tbaa !22
  store ptr %2, ptr %10, align 8, !tbaa !22
  store ptr %3, ptr %11, align 8, !tbaa !22
  store i32 %4, ptr %12, align 4, !tbaa !26
  store i32 %5, ptr %13, align 4, !tbaa !26
  %17 = load i32, ptr %12, align 4, !tbaa !26
  %18 = and i32 %17, 65536
  %19 = icmp ne i32 %18, 0
  br i1 %19, label %20, label %116

20:                                               ; preds = %6
  %21 = load ptr, ptr %8, align 8, !tbaa !54
  %22 = getelementptr inbounds nuw %struct.OnigEncodingTypeST, ptr %21, i32 0, i32 5
  %23 = load ptr, ptr %22, align 8, !tbaa !81
  %24 = load ptr, ptr %9, align 8, !tbaa !22
  %25 = load ptr, ptr %11, align 8, !tbaa !22
  %26 = load ptr, ptr %8, align 8, !tbaa !54
  %27 = call i32 %23(ptr noundef %24, ptr noundef %25, ptr noundef %26)
  %28 = icmp eq i32 %27, 10
  br i1 %28, label %29, label %53

29:                                               ; preds = %20
  %30 = load i32, ptr %13, align 4, !tbaa !26
  %31 = icmp ne i32 %30, 0
  br i1 %31, label %32, label %52

32:                                               ; preds = %29
  call void @llvm.lifetime.start.p0(i64 8, ptr %14) #12
  %33 = load ptr, ptr %8, align 8, !tbaa !54
  %34 = load ptr, ptr %10, align 8, !tbaa !22
  %35 = load ptr, ptr %9, align 8, !tbaa !22
  %36 = load ptr, ptr %11, align 8, !tbaa !22
  %37 = call ptr @onigenc_get_prev_char_head(ptr noundef %33, ptr noundef %34, ptr noundef %35, ptr noundef %36)
  store ptr %37, ptr %14, align 8, !tbaa !22
  %38 = load ptr, ptr %14, align 8, !tbaa !22
  %39 = icmp ne ptr %38, null
  br i1 %39, label %40, label %50

40:                                               ; preds = %32
  %41 = load ptr, ptr %8, align 8, !tbaa !54
  %42 = getelementptr inbounds nuw %struct.OnigEncodingTypeST, ptr %41, i32 0, i32 5
  %43 = load ptr, ptr %42, align 8, !tbaa !81
  %44 = load ptr, ptr %14, align 8, !tbaa !22
  %45 = load ptr, ptr %11, align 8, !tbaa !22
  %46 = load ptr, ptr %8, align 8, !tbaa !54
  %47 = call i32 %43(ptr noundef %44, ptr noundef %45, ptr noundef %46)
  %48 = icmp eq i32 %47, 13
  br i1 %48, label %49, label %50

49:                                               ; preds = %40
  store i32 0, ptr %7, align 4
  store i32 1, ptr %15, align 4
  br label %51

50:                                               ; preds = %40, %32
  store i32 1, ptr %7, align 4
  store i32 1, ptr %15, align 4
  br label %51

51:                                               ; preds = %50, %49
  call void @llvm.lifetime.end.p0(i64 8, ptr %14) #12
  br label %124

52:                                               ; preds = %29
  store i32 1, ptr %7, align 4
  br label %124

53:                                               ; preds = %20
  call void @llvm.lifetime.start.p0(i64 8, ptr %16) #12
  %54 = load ptr, ptr %9, align 8, !tbaa !22
  %55 = load ptr, ptr %8, align 8, !tbaa !54
  %56 = getelementptr inbounds nuw %struct.OnigEncodingTypeST, ptr %55, i32 0, i32 2
  %57 = load i32, ptr %56, align 8, !tbaa !79
  %58 = load ptr, ptr %8, align 8, !tbaa !54
  %59 = getelementptr inbounds nuw %struct.OnigEncodingTypeST, ptr %58, i32 0, i32 3
  %60 = load i32, ptr %59, align 4, !tbaa !80
  %61 = icmp eq i32 %57, %60
  br i1 %61, label %62, label %73

62:                                               ; preds = %53
  %63 = load ptr, ptr %9, align 8, !tbaa !22
  %64 = load ptr, ptr %11, align 8, !tbaa !22
  %65 = icmp ult ptr %63, %64
  br i1 %65, label %66, label %70

66:                                               ; preds = %62
  %67 = load ptr, ptr %8, align 8, !tbaa !54
  %68 = getelementptr inbounds nuw %struct.OnigEncodingTypeST, ptr %67, i32 0, i32 3
  %69 = load i32, ptr %68, align 4, !tbaa !80
  br label %71

70:                                               ; preds = %62
  br label %71

71:                                               ; preds = %70, %66
  %72 = phi i32 [ %69, %66 ], [ 0, %70 ]
  br label %78

73:                                               ; preds = %53
  %74 = load ptr, ptr %9, align 8, !tbaa !22
  %75 = load ptr, ptr %11, align 8, !tbaa !22
  %76 = load ptr, ptr %8, align 8, !tbaa !54
  %77 = call i32 @onigenc_mbclen(ptr noundef %74, ptr noundef %75, ptr noundef %76)
  br label %78

78:                                               ; preds = %73, %71
  %79 = phi i32 [ %72, %71 ], [ %77, %73 ]
  %80 = sext i32 %79 to i64
  %81 = getelementptr i8, ptr %54, i64 %80
  store ptr %81, ptr %16, align 8, !tbaa !22
  %82 = load ptr, ptr %16, align 8, !tbaa !22
  %83 = load ptr, ptr %11, align 8, !tbaa !22
  %84 = icmp ult ptr %82, %83
  br i1 %84, label %85, label %104

85:                                               ; preds = %78
  %86 = load ptr, ptr %8, align 8, !tbaa !54
  %87 = getelementptr inbounds nuw %struct.OnigEncodingTypeST, ptr %86, i32 0, i32 5
  %88 = load ptr, ptr %87, align 8, !tbaa !81
  %89 = load ptr, ptr %9, align 8, !tbaa !22
  %90 = load ptr, ptr %11, align 8, !tbaa !22
  %91 = load ptr, ptr %8, align 8, !tbaa !54
  %92 = call i32 %88(ptr noundef %89, ptr noundef %90, ptr noundef %91)
  %93 = icmp eq i32 %92, 13
  br i1 %93, label %94, label %104

94:                                               ; preds = %85
  %95 = load ptr, ptr %8, align 8, !tbaa !54
  %96 = getelementptr inbounds nuw %struct.OnigEncodingTypeST, ptr %95, i32 0, i32 5
  %97 = load ptr, ptr %96, align 8, !tbaa !81
  %98 = load ptr, ptr %16, align 8, !tbaa !22
  %99 = load ptr, ptr %11, align 8, !tbaa !22
  %100 = load ptr, ptr %8, align 8, !tbaa !54
  %101 = call i32 %97(ptr noundef %98, ptr noundef %99, ptr noundef %100)
  %102 = icmp eq i32 %101, 10
  br i1 %102, label %103, label %104

103:                                              ; preds = %94
  store i32 1, ptr %7, align 4
  store i32 1, ptr %15, align 4
  br label %115

104:                                              ; preds = %94, %85, %78
  %105 = load ptr, ptr %8, align 8, !tbaa !54
  %106 = getelementptr inbounds nuw %struct.OnigEncodingTypeST, ptr %105, i32 0, i32 4
  %107 = load ptr, ptr %106, align 8, !tbaa !90
  %108 = load ptr, ptr %9, align 8, !tbaa !22
  %109 = load ptr, ptr %11, align 8, !tbaa !22
  %110 = load ptr, ptr %8, align 8, !tbaa !54
  %111 = call i32 %107(ptr noundef %108, ptr noundef %109, ptr noundef %110)
  %112 = icmp ne i32 %111, 0
  br i1 %112, label %113, label %114

113:                                              ; preds = %104
  store i32 1, ptr %7, align 4
  store i32 1, ptr %15, align 4
  br label %115

114:                                              ; preds = %104
  store i32 0, ptr %7, align 4
  store i32 1, ptr %15, align 4
  br label %115

115:                                              ; preds = %114, %113, %103
  call void @llvm.lifetime.end.p0(i64 8, ptr %16) #12
  br label %124

116:                                              ; preds = %6
  %117 = load ptr, ptr %8, align 8, !tbaa !54
  %118 = getelementptr inbounds nuw %struct.OnigEncodingTypeST, ptr %117, i32 0, i32 4
  %119 = load ptr, ptr %118, align 8, !tbaa !90
  %120 = load ptr, ptr %9, align 8, !tbaa !22
  %121 = load ptr, ptr %11, align 8, !tbaa !22
  %122 = load ptr, ptr %8, align 8, !tbaa !54
  %123 = call i32 %119(ptr noundef %120, ptr noundef %121, ptr noundef %122)
  store i32 %123, ptr %7, align 4
  br label %124

124:                                              ; preds = %116, %115, %52, %51
  %125 = load i32, ptr %7, align 4
  ret i32 %125
}