; Function Attrs: nounwind sspstrong uwtable
define internal fastcc i32 @is_mbc_newline_ex(ptr noundef %0, ptr noundef %1, ptr noundef %2, ptr noundef %3, i32 noundef %4, i32 noundef range(i32 0, 2) %5) unnamed_addr #0 {
  %7 = and i32 %4, 65536
  %.not = icmp eq i32 %7, 0
  br i1 %.not, label %48, label %8

8:                                                ; preds = %6
  %9 = getelementptr inbounds nuw i8, ptr %0, i64 32
  %10 = load ptr, ptr %9, align 8, !tbaa !73
  %11 = tail call i32 %10(ptr noundef %1, ptr noundef %3, ptr noundef %0) #21
  %12 = icmp eq i32 %11, 10
  br i1 %12, label %13, label %21

13:                                               ; preds = %8
  %.not47 = icmp eq i32 %5, 0
  br i1 %.not47, label %52, label %14

14:                                               ; preds = %13
  %15 = tail call ptr @onigenc_get_prev_char_head(ptr noundef nonnull %0, ptr noundef %2, ptr noundef %1, ptr noundef %3) #21
  %.not48 = icmp eq ptr %15, null
  br i1 %.not48, label %20, label %16

16:                                               ; preds = %14
  %17 = load ptr, ptr %9, align 8, !tbaa !73
  %18 = tail call i32 %17(ptr noundef nonnull %15, ptr noundef %3, ptr noundef nonnull %0) #21
  %19 = icmp eq i32 %18, 13
  br i1 %19, label %52, label %20

20:                                               ; preds = %16, %14
  br label %52

21:                                               ; preds = %8
  %22 = getelementptr inbounds nuw i8, ptr %0, i64 16
  %23 = load i32, ptr %22, align 8, !tbaa !71
  %24 = getelementptr inbounds nuw i8, ptr %0, i64 20
  %25 = load i32, ptr %24, align 4, !tbaa !72
  %26 = icmp eq i32 %23, %25
  br i1 %26, label %27, label %29

27:                                               ; preds = %21
  %28 = icmp ult ptr %1, %3
  %spec.select = select i1 %28, i32 %23, i32 0
  br label %31

29:                                               ; preds = %21
  %30 = tail call i32 @onigenc_mbclen(ptr noundef %1, ptr noundef %3, ptr noundef nonnull %0) #21
  br label %31

31:                                               ; preds = %27, %29
  %32 = phi i32 [ %30, %29 ], [ %spec.select, %27 ]
  %33 = sext i32 %32 to i64
  %34 = getelementptr i8, ptr %1, i64 %33
  %35 = icmp ult ptr %34, %3
  br i1 %35, label %36, label %44

36:                                               ; preds = %31
  %37 = load ptr, ptr %9, align 8, !tbaa !73
  %38 = tail call i32 %37(ptr noundef %1, ptr noundef nonnull %3, ptr noundef nonnull %0) #21
  %39 = icmp eq i32 %38, 13
  br i1 %39, label %40, label %44

40:                                               ; preds = %36
  %41 = load ptr, ptr %9, align 8, !tbaa !73
  %42 = tail call i32 %41(ptr noundef %34, ptr noundef nonnull %3, ptr noundef nonnull %0) #21
  %43 = icmp eq i32 %42, 10
  br i1 %43, label %52, label %44

44:                                               ; preds = %40, %36, %31
  %45 = getelementptr inbounds nuw i8, ptr %0, i64 24
  %46 = load ptr, ptr %45, align 8, !tbaa !74
  %47 = tail call i32 %46(ptr noundef %1, ptr noundef %3, ptr noundef nonnull %0) #21
  %.not46 = icmp ne i32 %47, 0
  %. = zext i1 %.not46 to i32
  br label %52

48:                                               ; preds = %6
  %49 = getelementptr inbounds nuw i8, ptr %0, i64 24
  %50 = load ptr, ptr %49, align 8, !tbaa !74
  %51 = tail call i32 %50(ptr noundef %1, ptr noundef %3, ptr noundef %0) #21
  br label %52

52:                                               ; preds = %40, %44, %13, %20, %16, %48
  %.1 = phi i32 [ %51, %48 ], [ 1, %20 ], [ 0, %16 ], [ 1, %13 ], [ 1, %40 ], [ %., %44 ]
  ret i32 %.1
}